; Function Attrs: null_pointer_is_valid sspstrong uwtable
define zeroext i1 @Eax_Decrypt(ptr noundef readonly captures(none) %0, ptr noundef %1, ptr noundef %2, i32 noundef %3, i32 noundef %4, i32 noundef %5, ptr noundef readonly captures(none) %6, i8 noundef zeroext %7) local_unnamed_addr #0 {
  %9 = alloca ptr, align 8
  %10 = alloca [16 x i8], align 16
  %11 = alloca ptr, align 8
  %12 = alloca [16 x i8], align 16
  %13 = alloca [16 x i8], align 16
  call void @llvm.lifetime.start.p0(i64 16, ptr nonnull %12) #9
  call void @llvm.lifetime.start.p0(i64 16, ptr nonnull %13) #9
  %.not = icmp eq i32 %4, 16
  br i1 %.not, label %.preheader.preheader, label %82

.preheader.preheader:                             ; preds = %8
  tail call void @llvm.memset.p0.i64(ptr noundef nonnull align 1 dereferenceable(16) @instance, i8 0, i64 16, i1 false)
  call void @llvm.lifetime.start.p0(i64 8, ptr nonnull %11) #9
  %14 = call i32 @gcry_cipher_open(ptr noundef nonnull %11, i32 noundef 7, i32 noundef 1, i32 noundef 0)
  %.not.i = icmp eq i32 %14, 0
  br i1 %.not.i, label %15, label %AesEncrypt.exit

15:                                               ; preds = %.preheader.preheader
  %16 = load ptr, ptr %11, align 8
  %17 = call i32 @gcry_cipher_setkey(ptr noundef %16, ptr noundef %1, i64 noundef 16)
  %.not3.i = icmp eq i32 %17, 0
  %18 = load ptr, ptr %11, align 8
  br i1 %.not3.i, label %19, label %.sink.split.i

19:                                               ; preds = %15
  %20 = call i32 @gcry_cipher_encrypt(ptr noundef %18, ptr noundef nonnull @instance, i64 noundef 16, ptr noundef nonnull @instance, i64 noundef 16)
  %21 = load ptr, ptr %11, align 8
  br label %.sink.split.i

.sink.split.i:                                    ; preds = %19, %15
  %.sink.i = phi ptr [ %21, %19 ], [ %18, %15 ]
  call void @gcry_cipher_close(ptr noundef %.sink.i)
  br label %AesEncrypt.exit

AesEncrypt.exit:                                  ; preds = %.preheader.preheader, %.sink.split.i
  call void @llvm.lifetime.end.p0(i64 8, ptr nonnull %11) #9
  br label %22

22:                                               ; preds = %22, %AesEncrypt.exit
  %indvars.iv.i = phi i64 [ 0, %AesEncrypt.exit ], [ %indvars.iv.next.i, %22 ]
  %.013.i = phi i8 [ 0, %AesEncrypt.exit ], [ %.lobit.i, %22 ]
  %23 = getelementptr i8, ptr @instance, i64 %indvars.iv.i
  %24 = load i8, ptr %23, align 1
  %25 = shl i8 %24, 1
  %26 = or disjoint i8 %25, %.013.i
  %27 = getelementptr i8, ptr getelementptr inbounds nuw (i8, ptr @instance, i64 16), i64 %indvars.iv.i
  store i8 %26, ptr %27, align 1
  %.lobit.i = lshr i8 %24, 7
  %indvars.iv.next.i = add nuw nsw i64 %indvars.iv.i, 1
  %exitcond.not.i = icmp eq i64 %indvars.iv.next.i, 16
  br i1 %exitcond.not.i, label %28, label %22, !llvm.loop !6

28:                                               ; preds = %22
  %.not.i38 = icmp sgt i8 %24, -1
  br i1 %.not.i38, label %Dbl.exit.preheader, label %29

29:                                               ; preds = %28
  %30 = load i8, ptr getelementptr inbounds nuw (i8, ptr @instance, i64 16), align 1
  %31 = xor i8 %30, -121
  store i8 %31, ptr getelementptr inbounds nuw (i8, ptr @instance, i64 16), align 1
  br label %Dbl.exit.preheader

Dbl.exit.preheader:                               ; preds = %28, %29
  br label %Dbl.exit

Dbl.exit:                                         ; preds = %Dbl.exit.preheader, %Dbl.exit
  %indvars.iv.i39 = phi i64 [ %indvars.iv.next.i42, %Dbl.exit ], [ 0, %Dbl.exit.preheader ]
  %.013.i40 = phi i8 [ %.lobit.i41, %Dbl.exit ], [ 0, %Dbl.exit.preheader ]
  %32 = getelementptr i8, ptr getelementptr inbounds nuw (i8, ptr @instance, i64 16), i64 %indvars.iv.i39
  %33 = load i8, ptr %32, align 1
  %34 = shl i8 %33, 1
  %35 = or disjoint i8 %34, %.013.i40
  %36 = getelementptr i8, ptr getelementptr inbounds nuw (i8, ptr @instance, i64 32), i64 %indvars.iv.i39
  store i8 %35, ptr %36, align 1
  %.lobit.i41 = lshr i8 %33, 7
  %indvars.iv.next.i42 = add nuw nsw i64 %indvars.iv.i39, 1
  %exitcond.not.i43 = icmp eq i64 %indvars.iv.next.i42, 16
  br i1 %exitcond.not.i43, label %37, label %Dbl.exit, !llvm.loop !6

37:                                               ; preds = %Dbl.exit
  %.not.i44 = icmp sgt i8 %33, -1
  br i1 %.not.i44, label %Dbl.exit45, label %38

38:                                               ; preds = %37
  %39 = load i8, ptr getelementptr inbounds nuw (i8, ptr @instance, i64 32), align 1
  %40 = xor i8 %39, -121
  store i8 %40, ptr getelementptr inbounds nuw (i8, ptr @instance, i64 32), align 1
  br label %Dbl.exit45

Dbl.exit45:                                       ; preds = %37, %38
  call void @llvm.memcpy.p0.p0.i64(ptr noundef nonnull align 16 dereferenceable(16) %12, ptr noundef nonnull align 1 dereferenceable(16) getelementptr inbounds nuw (i8, ptr @instance, i64 16), i64 noundef 16, i1 noundef false) #9
  %41 = icmp eq i8 %7, 1
  %42 = trunc i32 %3 to i16
  br i1 %41, label %43, label %46

43:                                               ; preds = %Dbl.exit45
  %44 = trunc i32 %5 to i16
  call fastcc void @dCMAC(ptr noundef %1, ptr noundef nonnull %12, ptr noundef %0, i16 noundef zeroext %42, ptr noundef %2, i16 noundef zeroext %44)
  %45 = getelementptr inbounds nuw i8, ptr %12, i64 12
  %bcmp36 = call i32 @bcmp(ptr noundef dereferenceable(4) %6, ptr noundef nonnull dereferenceable(4) %45, i64 4)
  %.not37 = icmp eq i32 %bcmp36, 0
  br label %82

46:                                               ; preds = %Dbl.exit45
  call fastcc void @dCMAC(ptr noundef %1, ptr noundef nonnull %12, ptr noundef readonly %0, i16 noundef zeroext %42, ptr noundef null, i16 noundef zeroext 0)
  %47 = icmp eq i8 %7, 2
  br i1 %47, label %48, label %82

48:                                               ; preds = %46
  %49 = icmp eq i32 %5, 0
  br i1 %49, label %50, label %52

50:                                               ; preds = %48
  %51 = getelementptr inbounds nuw i8, ptr %12, i64 12
  %bcmp34 = call i32 @bcmp(ptr noundef dereferenceable(4) %6, ptr noundef nonnull dereferenceable(4) %51, i64 4)
  %.not35 = icmp eq i32 %bcmp34, 0
  br label %82

52:                                               ; preds = %48
  call void @llvm.memcpy.p0.p0.i64(ptr noundef nonnull align 16 dereferenceable(16) %13, ptr noundef nonnull align 1 dereferenceable(16) getelementptr inbounds nuw (i8, ptr @instance, i64 32), i64 noundef 16, i1 noundef false) #9
  %53 = trunc i32 %5 to i16
  call fastcc void @dCMAC(ptr noundef %1, ptr noundef nonnull %13, ptr noundef readonly %2, i16 noundef zeroext %53, ptr noundef null, i16 noundef zeroext 0)
  br label %54

54:                                               ; preds = %52, %54
  %indvars.iv = phi i64 [ 0, %52 ], [ %indvars.iv.next, %54 ]
  %55 = getelementptr [16 x i8], ptr %12, i64 0, i64 %indvars.iv
  %56 = load i8, ptr %55, align 1
  %57 = getelementptr [16 x i8], ptr %13, i64 0, i64 %indvars.iv
  %58 = load i8, ptr %57, align 1
  %59 = xor i8 %58, %56
  store i8 %59, ptr %57, align 1
  %indvars.iv.next = add nuw nsw i64 %indvars.iv, 1
  %exitcond.not = icmp eq i64 %indvars.iv.next, 16
  br i1 %exitcond.not, label %60, label %54, !llvm.loop !8

60:                                               ; preds = %54
  %61 = getelementptr inbounds nuw i8, ptr %13, i64 12
  %bcmp = call i32 @bcmp(ptr noundef dereferenceable(4) %6, ptr noundef nonnull dereferenceable(4) %61, i64 4)
  %62 = icmp eq i32 %bcmp, 0
  br i1 %62, label %63, label %82

63:                                               ; preds = %60
  call void @llvm.lifetime.start.p0(i64 8, ptr nonnull %9) #9
  call void @llvm.lifetime.start.p0(i64 16, ptr nonnull %10) #9
  call void @llvm.memcpy.p0.p0.i64(ptr noundef nonnull align 16 dereferenceable(16) %10, ptr noundef nonnull readonly align 16 dereferenceable(16) %12, i64 noundef 16, i1 noundef false) #9
  %64 = getelementptr inbounds nuw i8, ptr %10, i64 12
  %65 = load i8, ptr %64, align 4
  %66 = and i8 %65, 127
  store i8 %66, ptr %64, align 4
  %67 = getelementptr inbounds nuw i8, ptr %10, i64 14
  %68 = load i8, ptr %67, align 2
  %69 = and i8 %68, 127
  store i8 %69, ptr %67, align 2
  %70 = call i32 @gcry_cipher_open(ptr noundef nonnull %9, i32 noundef 7, i32 noundef 6, i32 noundef 0)
  %.not.i46 = icmp eq i32 %70, 0
  br i1 %.not.i46, label %71, label %CTR.exit

71:                                               ; preds = %63
  %72 = load ptr, ptr %9, align 8
  %73 = call i32 @gcry_cipher_setkey(ptr noundef %72, ptr noundef %1, i64 noundef 16)
  %.not5.i = icmp eq i32 %73, 0
  %74 = load ptr, ptr %9, align 8
  br i1 %.not5.i, label %75, label %.sink.split.i47

75:                                               ; preds = %71
  %76 = call i32 @gcry_cipher_setctr(ptr noundef %74, ptr noundef nonnull %10, i64 noundef 16)
  %.not6.i = icmp eq i32 %76, 0
  %77 = load ptr, ptr %9, align 8
  br i1 %.not6.i, label %78, label %.sink.split.i47

78:                                               ; preds = %75
  %.mask = and i32 %5, 65535
  %79 = zext nneg i32 %.mask to i64
  %80 = call i32 @gcry_cipher_encrypt(ptr noundef %77, ptr noundef %2, i64 noundef %79, ptr noundef %2, i64 noundef %79)
  %81 = load ptr, ptr %9, align 8
  br label %.sink.split.i47

.sink.split.i47:                                  ; preds = %78, %75, %71
  %.sink.i48 = phi ptr [ %81, %78 ], [ %74, %71 ], [ %77, %75 ]
  call void @gcry_cipher_close(ptr noundef %.sink.i48)
  br label %CTR.exit

CTR.exit:                                         ; preds = %63, %.sink.split.i47
  call void @llvm.lifetime.end.p0(i64 16, ptr nonnull %10) #9
  call void @llvm.lifetime.end.p0(i64 8, ptr nonnull %9) #9
  br label %82

82:                                               ; preds = %60, %46, %8, %CTR.exit, %50, %43
  %.031 = phi i1 [ %.not37, %43 ], [ %.not35, %50 ], [ true, %CTR.exit ], [ false, %8 ], [ false, %46 ], [ false, %60 ]
  call void @llvm.lifetime.end.p0(i64 16, ptr nonnull %13) #9
  call void @llvm.lifetime.end.p0(i64 16, ptr nonnull %12) #9
  ret i1 %.031
}